; Function Attrs: nounwind uwtable
define internal void @poll_dealloc(ptr noundef %0) #0 {
  %2 = getelementptr inbounds nuw i8, ptr %0, i64 8
  %3 = load ptr, ptr %2, align 8
  tail call void @evsig_dealloc_(ptr noundef %0) #6
  %4 = getelementptr inbounds nuw i8, ptr %3, i64 16
  %5 = load ptr, ptr %4, align 8
  %.not = icmp eq ptr %5, null
  br i1 %.not, label %7, label %6

6:                                                ; preds = %1
  tail call void @event_mm_free_(ptr noundef nonnull %5) #6
  br label %7

7:                                                ; preds = %6, %1
  %8 = getelementptr inbounds nuw i8, ptr %3, i64 24
  %9 = load ptr, ptr %8, align 8
  %.not9 = icmp eq ptr %9, null
  br i1 %.not9, label %11, label %10

10:                                               ; preds = %7
  tail call void @event_mm_free_(ptr noundef nonnull %9) #6
  br label %11

11:                                               ; preds = %10, %7
  tail call void @llvm.memset.p0.i64(ptr noundef nonnull align 8 dereferenceable(32) %3, i8 0, i64 32, i1 false)
  tail call void @event_mm_free_(ptr noundef nonnull %3) #6
  ret void
}